(dp1
S'keywords'
p2
(dp3
Vand
p4
(lp5
S'/Users/dumchev/Yandex.Disk.localized/notes/vim/tech.txt'
p6
asVdomain
p7
(lp8
g6
aS'/Users/dumchev/Yandex.Disk.localized/notes/vim/android_security'
p9
asVfalse
p10
(lp11
g9
asVve
p12
(lp13
g6
asVencoding
p14
(lp15
g9
asVtrue
p16
(lp17
g9
asVrequest
p18
(lp19
S'/Users/dumchev/Yandex.Disk.localized/notes/vim/vin'
p20
asVvk
p21
(lp22
g6
asVMulti
p23
(lp24
g6
asVback
p25
(lp26
S'/Users/dumchev/Yandex.Disk.localized/notes/vim/somewhere'
p27
asVcleartextTrafficPermitted
p28
(lp29
g9
asVsas
p30
(lp31
g20
asVoffer
p32
(lp33
g20
asVapi
p34
(lp35
g6
ag20
asVyandex
p36
(lp37
g20
asVio
p38
(lp39
g9
asVgo
p40
(lp41
g9
asVhttp
p42
(lp43
g20
asVtodo
p44
(lp45
S'/Users/dumchev/Yandex.Disk.localized/notes/vim/standup.txt'
p46
asVtutorial
p47
(lp48
g46
asVif
p49
(lp50
g6
asVxml
p51
(lp52
g9
asVInteractors
p53
(lp54
g6
asVfrom
p55
(lp56
g6
asVsecuriti
p57
(lp58
g46
asVfor
p59
(lp60
g6
ag46
asVsomewhere
p61
(lp62
g27
ag9
asVwith
p63
(lp64
g46
asV1075866775
p65
(lp66
g20
asVformat
p67
(lp68
g20
asVhad
p69
(lp70
g6
asVname
p71
(lp72
g20
asVto
p73
(lp74
g27
ag6
asVversion
p75
(lp76
g9
asVzeplin
p77
(lp78
g20
asVhttps
p79
(lp80
g46
asVcars
p81
(lp82
g20
asVtest
p83
(lp84
g20
asVandroid
p85
(lp86
g6
ag46
asVswagger
p87
(lp88
g20
asVconfig
p89
(lp90
g9
asVwe
p91
(lp92
g6
asV2600
p93
(lp94
g20
asV01
p95
(lp96
g20
asVraywenderlich
p97
(lp98
g46
asVseparate
p99
(lp100
g6
asVcontracts
p101
(lp102
g6
asVvin
p103
(lp104
g20
asVinterfaces
p105
(lp106
g6
asVvertis
p107
(lp108
g20
asVautoru
p109
(lp110
g20
asVCard_Check
p111
(lp112
g20
asVdependencies
p113
(lp114
g6
asVarticle
p115
(lp116
g46
asVdata
p117
(lp118
g6
ag46
asVnet
p119
(lp120
g20
asVnetwork
p121
(lp122
g46
ag9
asV9f659d12
p123
(lp124
g20
asVgithub
p125
(lp126
g9
asVutf
p127
(lp128
g9
asVsecuring
p129
(lp130
g46
asV5634
p131
(lp132
g46
asVoffers_history
p133
(lp134
g20
asVandroid_security
p135
(lp136
g27
ag9
asVwork
p137
(lp138
g46
asVmodules
p139
(lp140
g6
asVremove
p141
(lp142
g6
asVincludeSubdomains
p143
(lp144
g9
asVtoken
p145
(lp146
g20
asVwww
p147
(lp148
g46
asVsecurity
p149
(lp150
g9
asVcom
p151
(lp152
g46
asVcould
p153
(lp154
g6
assS'files'
p155
(dp156
g27
F1534494854.9423506
sg46
F1534492803.2390697
sg20
F1534337567.1594603
sg6
F1534076519.8509433
sg9
F1534494784.2292938
ssS'version'
p157
I2
s.